GAS LISTING /tmp/ccWpO0hZ.s 			page 1


   1              		.file	"main.cpp"
   2              		.option pic
   3              		.option norelax
   4              		.text
   5              	.Ltext0:
   6              		.align	2
   7              		.globl	_Z11wrapperMainPv
   9              	_Z11wrapperMainPv:
  10              	.LFB38:
  11              		.file 1 "src/main.cpp"
   1:src/main.cpp  **** //
   2:src/main.cpp  **** // Created by os on 8/13/24.
   3:src/main.cpp  **** //
   4:src/main.cpp  **** 
   5:src/main.cpp  **** #include "../h/syscall_c.h"
   6:src/main.cpp  **** #include "../lib/console.h"
   7:src/main.cpp  **** #include "../h/Riscv.hpp"
   8:src/main.cpp  **** 
   9:src/main.cpp  **** extern void userMain();
  10:src/main.cpp  **** 
  11:src/main.cpp  **** void wrapperMain(void* argumenti)
  12:src/main.cpp  **** {
  12              		.loc 1 12 1
  13              		.cfi_startproc
  14              	.LVL0:
  15 0000 130101FF 		addi	sp,sp,-16
  16              		.cfi_def_cfa_offset 16
  17 0004 23341100 		sd	ra,8(sp)
  18 0008 23308100 		sd	s0,0(sp)
  19              		.cfi_offset 1, -8
  20              		.cfi_offset 8, -16
  21 000c 13040101 		addi	s0,sp,16
  22              		.cfi_def_cfa 8, 0
  13:src/main.cpp  ****   userMain();
  23              		.loc 1 13 3
  24              		.loc 1 13 11 is_stmt 0
  25 0010 97000000 		call	_Z8userMainv@plt
  25      E7800000 
  26              	.LVL1:
  14:src/main.cpp  **** }
  27              		.loc 1 14 1
  28 0018 83308100 		ld	ra,8(sp)
  29              		.cfi_restore 1
  30 001c 03340100 		ld	s0,0(sp)
  31              		.cfi_restore 8
  32              		.cfi_def_cfa 2, 16
  33 0020 13010101 		addi	sp,sp,16
  34              		.cfi_def_cfa_offset 0
  35 0024 67800000 		jr	ra
  36              		.cfi_endproc
  37              	.LFE38:
  39              		.align	2
  40              		.globl	main
  42              	main:
  43              	.LFB39:
  15:src/main.cpp  **** 
  16:src/main.cpp  **** 
GAS LISTING /tmp/ccWpO0hZ.s 			page 2


  17:src/main.cpp  **** int main() {
  44              		.loc 1 17 12 is_stmt 1
  45              		.cfi_startproc
  46 0028 130101FC 		addi	sp,sp,-64
  47              		.cfi_def_cfa_offset 64
  48 002c 233C1102 		sd	ra,56(sp)
  49 0030 23388102 		sd	s0,48(sp)
  50              		.cfi_offset 1, -8
  51              		.cfi_offset 8, -16
  52 0034 13040104 		addi	s0,sp,64
  53              		.cfi_def_cfa 8, 0
  18:src/main.cpp  **** TCB *threads[5];
  54              		.loc 1 18 1
  19:src/main.cpp  **** 
  20:src/main.cpp  ****  MemoryAllocator::inicijalizacija();
  55              		.loc 1 20 2
  56              	.LBB10:
  57              	.LBB11:
  58              		.file 2 "src/../h/MemoryAllocator.hpp"
   1:src/../h/MemoryAllocator.hpp **** #ifndef _MemoryAllocator_
   2:src/../h/MemoryAllocator.hpp **** #define _MemoryAllocator_
   3:src/../h/MemoryAllocator.hpp **** #include "../lib/hw.h"
   4:src/../h/MemoryAllocator.hpp **** 
   5:src/../h/MemoryAllocator.hpp **** class MemoryAllocator {
   6:src/../h/MemoryAllocator.hpp **** 
   7:src/../h/MemoryAllocator.hpp ****  public :
   8:src/../h/MemoryAllocator.hpp ****  struct Parce{
   9:src/../h/MemoryAllocator.hpp ****   size_t velicina;
  10:src/../h/MemoryAllocator.hpp ****   Parce *prethodni, *sledeci;
  11:src/../h/MemoryAllocator.hpp **** 
  12:src/../h/MemoryAllocator.hpp ****  };
  13:src/../h/MemoryAllocator.hpp **** 
  14:src/../h/MemoryAllocator.hpp ****  static Parce* slobodnaMemorija;
  15:src/../h/MemoryAllocator.hpp **** 
  16:src/../h/MemoryAllocator.hpp ****  static int mem_free (void *memorija);
  17:src/../h/MemoryAllocator.hpp ****  static void* mem_alloc(size_t velicina);
  18:src/../h/MemoryAllocator.hpp ****  static void inicijalizacija()
  19:src/../h/MemoryAllocator.hpp ****  {
  20:src/../h/MemoryAllocator.hpp ****   slobodnaMemorija = (Parce*) HEAP_START_ADDR;
  59              		.loc 2 20 3
  60              		.loc 2 20 20 is_stmt 0
  61 0038 97070000 		la	a5,HEAP_START_ADDR
  61      83B70700 
  62 0040 83B70700 		ld	a5,0(a5)
  63 0044 17070000 		la	a4,_ZN15MemoryAllocator16slobodnaMemorijaE
  63      03370700 
  64 004c 2330F700 		sd	a5,0(a4)
  21:src/../h/MemoryAllocator.hpp ****   slobodnaMemorija->sledeci = nullptr;
  65              		.loc 2 21 3 is_stmt 1
  66              		.loc 2 21 29 is_stmt 0
  67 0050 23B80700 		sd	zero,16(a5)
  22:src/../h/MemoryAllocator.hpp ****   slobodnaMemorija->prethodni = nullptr;
  68              		.loc 2 22 3 is_stmt 1
  69              		.loc 2 22 31 is_stmt 0
  70 0054 23B40700 		sd	zero,8(a5)
  23:src/../h/MemoryAllocator.hpp ****   slobodnaMemorija->velicina = ((uint64) HEAP_START_ADDR - (uint64) HEAP_END_ADDR)/MEM_BLOCK_SIZE;
  71              		.loc 2 23 3 is_stmt 1
GAS LISTING /tmp/ccWpO0hZ.s 			page 3


  72              		.loc 2 23 58 is_stmt 0
  73 0058 17070000 		la	a4,HEAP_END_ADDR
  73      03370700 
  74 0060 03370700 		ld	a4,0(a4)
  75 0064 3387E740 		sub	a4,a5,a4
  76              		.loc 2 23 83
  77 0068 13576700 		srli	a4,a4,6
  78              		.loc 2 23 30
  79 006c 23B0E700 		sd	a4,0(a5)
  80              	.LBE11:
  81              	.LBE10:
  21:src/main.cpp  ****  Riscv::w_stvec((uint64) &Riscv::stvecVectorTable | 0b01);
  82              		.loc 1 21 2 is_stmt 1
  83              		.loc 1 21 16 is_stmt 0
  84 0070 97070000 		la	a5,_ZN5Riscv16stvecVectorTableEv
  84      83B70700 
  85 0078 93E71700 		ori	a5,a5,1
  86              	.LVL2:
  87              	.LBB12:
  88              	.LBB13:
  89              		.file 3 "src/../h/Riscv.hpp"
   1:src/../h/Riscv.hpp **** #ifndef _Riscv_
   2:src/../h/Riscv.hpp **** #define _Riscv_
   3:src/../h/Riscv.hpp **** 
   4:src/../h/Riscv.hpp **** #include "../lib/hw.h"
   5:src/../h/Riscv.hpp **** 
   6:src/../h/Riscv.hpp **** class Riscv
   7:src/../h/Riscv.hpp **** {
   8:src/../h/Riscv.hpp **** public:
   9:src/../h/Riscv.hpp **** 
  10:src/../h/Riscv.hpp **** 
  11:src/../h/Riscv.hpp ****     // read register scause
  12:src/../h/Riscv.hpp ****     static uint64 r_scause();
  13:src/../h/Riscv.hpp **** 
  14:src/../h/Riscv.hpp ****     // write register scause
  15:src/../h/Riscv.hpp ****     static void w_scause(uint64 scause);
  16:src/../h/Riscv.hpp **** 
  17:src/../h/Riscv.hpp ****     // read register sepc
  18:src/../h/Riscv.hpp ****     static uint64 r_sepc();
  19:src/../h/Riscv.hpp **** 
  20:src/../h/Riscv.hpp ****     // write register sepc
  21:src/../h/Riscv.hpp ****     static void w_sepc(uint64 sepc);
  22:src/../h/Riscv.hpp **** 
  23:src/../h/Riscv.hpp ****     // read register stvec
  24:src/../h/Riscv.hpp ****     static uint64 r_stvec();
  25:src/../h/Riscv.hpp **** 
  26:src/../h/Riscv.hpp ****     // write register stvec
  27:src/../h/Riscv.hpp ****     static void w_stvec(uint64 stvec);
  28:src/../h/Riscv.hpp **** 
  29:src/../h/Riscv.hpp ****     // read register stval
  30:src/../h/Riscv.hpp ****     static uint64 r_stval();
  31:src/../h/Riscv.hpp **** 
  32:src/../h/Riscv.hpp ****     // write register stval
  33:src/../h/Riscv.hpp ****     static void w_stval(uint64 stval);
  34:src/../h/Riscv.hpp **** 
  35:src/../h/Riscv.hpp ****     enum BitMaskSip
  36:src/../h/Riscv.hpp ****     {
GAS LISTING /tmp/ccWpO0hZ.s 			page 4


  37:src/../h/Riscv.hpp ****         SIP_SSIP = (1 << 1),
  38:src/../h/Riscv.hpp ****         SIP_STIP = (1 << 5),
  39:src/../h/Riscv.hpp ****         SIP_SEIP = (1 << 9),
  40:src/../h/Riscv.hpp ****     };
  41:src/../h/Riscv.hpp **** 
  42:src/../h/Riscv.hpp ****     // mask set register sip
  43:src/../h/Riscv.hpp ****     static void ms_sip(uint64 mask);
  44:src/../h/Riscv.hpp **** 
  45:src/../h/Riscv.hpp ****     // mask clear register sip
  46:src/../h/Riscv.hpp ****     static void mc_sip(uint64 mask);
  47:src/../h/Riscv.hpp **** 
  48:src/../h/Riscv.hpp ****     // read register sip
  49:src/../h/Riscv.hpp ****     static uint64 r_sip();
  50:src/../h/Riscv.hpp **** 
  51:src/../h/Riscv.hpp ****     // write register sip
  52:src/../h/Riscv.hpp ****     static void w_sip(uint64 sip);
  53:src/../h/Riscv.hpp **** 
  54:src/../h/Riscv.hpp ****     enum BitMaskSstatus
  55:src/../h/Riscv.hpp ****     {
  56:src/../h/Riscv.hpp ****         SSTATUS_SIE = (1 << 1),
  57:src/../h/Riscv.hpp ****         SSTATUS_SPIE = (1 << 5),
  58:src/../h/Riscv.hpp ****         SSTATUS_SPP = (1 << 8),
  59:src/../h/Riscv.hpp ****     };
  60:src/../h/Riscv.hpp **** 
  61:src/../h/Riscv.hpp ****     // mask set register sstatus
  62:src/../h/Riscv.hpp ****     static void ms_sstatus(uint64 mask);
  63:src/../h/Riscv.hpp **** 
  64:src/../h/Riscv.hpp ****     // mask clear register sstatus
  65:src/../h/Riscv.hpp ****     static void mc_sstatus(uint64 mask);
  66:src/../h/Riscv.hpp **** 
  67:src/../h/Riscv.hpp ****     // read register sstatus
  68:src/../h/Riscv.hpp ****     static uint64 r_sstatus();
  69:src/../h/Riscv.hpp **** 
  70:src/../h/Riscv.hpp ****     // write register sstatus
  71:src/../h/Riscv.hpp ****     static void w_sstatus(uint64 sstatus);
  72:src/../h/Riscv.hpp **** 
  73:src/../h/Riscv.hpp ****     // supervisor trap
  74:src/../h/Riscv.hpp ****     static void supervisorTrap();
  75:src/../h/Riscv.hpp **** 
  76:src/../h/Riscv.hpp ****     //stvec Vector "table"
  77:src/../h/Riscv.hpp ****     static void stvecVectorTable();
  78:src/../h/Riscv.hpp **** 
  79:src/../h/Riscv.hpp ****     //read a0 register
  80:src/../h/Riscv.hpp ****     static uint64 r_a0();
  81:src/../h/Riscv.hpp **** 
  82:src/../h/Riscv.hpp ****     //write to a0 register
  83:src/../h/Riscv.hpp ****     static void w_a0(uint64 writeValue);
  84:src/../h/Riscv.hpp **** 
  85:src/../h/Riscv.hpp **** 
  86:src/../h/Riscv.hpp **** private:
  87:src/../h/Riscv.hpp **** 
  88:src/../h/Riscv.hpp ****     // supervisor trap handler
  89:src/../h/Riscv.hpp ****     static void handleSupervisorTrap();
  90:src/../h/Riscv.hpp **** 
  91:src/../h/Riscv.hpp ****     static void handleTimerInterrupt();
  92:src/../h/Riscv.hpp **** 
  93:src/../h/Riscv.hpp ****     static void handleConsoleInterrupt();
GAS LISTING /tmp/ccWpO0hZ.s 			page 5


  94:src/../h/Riscv.hpp **** };
  95:src/../h/Riscv.hpp **** 
  96:src/../h/Riscv.hpp **** 
  97:src/../h/Riscv.hpp **** inline uint64 Riscv::r_scause()
  98:src/../h/Riscv.hpp **** {
  99:src/../h/Riscv.hpp ****     uint64 volatile scause;
 100:src/../h/Riscv.hpp ****     __asm__ volatile ("csrr %[scause], scause" : [scause] "=r"(scause));
 101:src/../h/Riscv.hpp ****     return scause;
 102:src/../h/Riscv.hpp **** }
 103:src/../h/Riscv.hpp **** 
 104:src/../h/Riscv.hpp **** inline void Riscv::w_scause(uint64 scause)
 105:src/../h/Riscv.hpp **** {
 106:src/../h/Riscv.hpp ****     __asm__ volatile ("csrw scause, %[scause]" : : [scause] "r"(scause));
 107:src/../h/Riscv.hpp **** }
 108:src/../h/Riscv.hpp **** 
 109:src/../h/Riscv.hpp **** inline uint64 Riscv::r_sepc()
 110:src/../h/Riscv.hpp **** {
 111:src/../h/Riscv.hpp ****     uint64 volatile sepc;
 112:src/../h/Riscv.hpp ****     __asm__ volatile ("csrr %[sepc], sepc" : [sepc] "=r"(sepc));
 113:src/../h/Riscv.hpp ****     return sepc;
 114:src/../h/Riscv.hpp **** }
 115:src/../h/Riscv.hpp **** 
 116:src/../h/Riscv.hpp **** inline void Riscv::w_sepc(uint64 sepc)
 117:src/../h/Riscv.hpp **** {
 118:src/../h/Riscv.hpp ****     __asm__ volatile ("csrw sepc, %[sepc]" : : [sepc] "r"(sepc));
 119:src/../h/Riscv.hpp **** }
 120:src/../h/Riscv.hpp **** 
 121:src/../h/Riscv.hpp **** inline uint64 Riscv::r_stvec()
 122:src/../h/Riscv.hpp **** {
 123:src/../h/Riscv.hpp ****     uint64 volatile stvec;
 124:src/../h/Riscv.hpp ****     __asm__ volatile ("csrr %[stvec], stvec" : [stvec] "=r"(stvec));
 125:src/../h/Riscv.hpp ****     return stvec;
 126:src/../h/Riscv.hpp **** }
 127:src/../h/Riscv.hpp **** 
 128:src/../h/Riscv.hpp **** inline void Riscv::w_stvec(uint64 stvec)
 129:src/../h/Riscv.hpp **** {
 130:src/../h/Riscv.hpp ****     __asm__ volatile ("csrw stvec, %[stvec]" : : [stvec] "r"(stvec));
  90              		.loc 3 130 5 is_stmt 1
  91              		.loc 3 130 69 is_stmt 0
  92              	#APP
  93              	# 130 "src/../h/Riscv.hpp" 1
 131              	}
  94              		csrw stvec, a5
  95              	# 0 "" 2
  96              	.LVL3:
  97              	#NO_APP
  98              	.LBE13:
  99              	.LBE12:
  22:src/main.cpp  ****  Riscv::ms_sstatus(Riscv::SSTATUS_SIE);
 100              		.loc 1 22 2 is_stmt 1
 101              	.LBB14:
 102              	.LBB15:
 132:src/../h/Riscv.hpp **** 
 133:src/../h/Riscv.hpp **** inline uint64 Riscv::r_stval()
 134:src/../h/Riscv.hpp **** {
 135:src/../h/Riscv.hpp ****     uint64 volatile stval;
 136:src/../h/Riscv.hpp ****     __asm__ volatile ("csrr %[stval], stval" : [stval] "=r"(stval));
GAS LISTING /tmp/ccWpO0hZ.s 			page 6


 137:src/../h/Riscv.hpp ****     return stval;
 138:src/../h/Riscv.hpp **** }
 139:src/../h/Riscv.hpp **** 
 140:src/../h/Riscv.hpp **** inline void Riscv::w_stval(uint64 stval)
 141:src/../h/Riscv.hpp **** {
 142:src/../h/Riscv.hpp ****     __asm__ volatile ("csrw stval, %[stval]" : : [stval] "r"(stval));
 143:src/../h/Riscv.hpp **** }
 144:src/../h/Riscv.hpp **** 
 145:src/../h/Riscv.hpp **** inline void Riscv::ms_sip(uint64 mask)
 146:src/../h/Riscv.hpp **** {
 147:src/../h/Riscv.hpp ****     __asm__ volatile ("csrs sip, %[mask]" : : [mask] "r"(mask));
 148:src/../h/Riscv.hpp **** }
 149:src/../h/Riscv.hpp **** 
 150:src/../h/Riscv.hpp **** inline void Riscv::mc_sip(uint64 mask)
 151:src/../h/Riscv.hpp **** {
 152:src/../h/Riscv.hpp ****     __asm__ volatile ("csrc sip, %[mask]" : : [mask] "r"(mask));
 153:src/../h/Riscv.hpp **** }
 154:src/../h/Riscv.hpp **** 
 155:src/../h/Riscv.hpp **** inline uint64 Riscv::r_sip()
 156:src/../h/Riscv.hpp **** {
 157:src/../h/Riscv.hpp ****     uint64 volatile sip;
 158:src/../h/Riscv.hpp ****     __asm__ volatile ("csrr %[sip], sip" : [sip] "=r"(sip));
 159:src/../h/Riscv.hpp ****     return sip;
 160:src/../h/Riscv.hpp **** }
 161:src/../h/Riscv.hpp **** 
 162:src/../h/Riscv.hpp **** inline void Riscv::w_sip(uint64 sip)
 163:src/../h/Riscv.hpp **** {
 164:src/../h/Riscv.hpp ****     __asm__ volatile ("csrw sip, %[sip]" : : [sip] "r"(sip));
 165:src/../h/Riscv.hpp **** }
 166:src/../h/Riscv.hpp **** 
 167:src/../h/Riscv.hpp **** inline void Riscv::ms_sstatus(uint64 mask)
 168:src/../h/Riscv.hpp **** {
 169:src/../h/Riscv.hpp ****     __asm__ volatile ("csrs sstatus, %[mask]" : : [mask] "r"(mask));
 103              		.loc 3 169 5
 104              		.loc 3 169 68 is_stmt 0
 105 0080 93072000 		li	a5,2
 106              	#APP
 107              	# 169 "src/../h/Riscv.hpp" 1
 170              	}
 108              		csrs sstatus, a5
 109              	# 0 "" 2
 110              	.LVL4:
 111              	#NO_APP
 112              	.LBE15:
 113              	.LBE14:
  23:src/main.cpp  **** 
  24:src/main.cpp  ****  thread_create(&threads[0], nullptr, nullptr);
 114              		.loc 1 24 2 is_stmt 1
 115              		.loc 1 24 15 is_stmt 0
 116 0088 13060000 		li	a2,0
 117 008c 93050000 		li	a1,0
 118 0090 130584FC 		addi	a0,s0,-56
 119 0094 97000000 		call	_Z13thread_createPP3TCBPFvPvES2_@plt
 119      E7800000 
 120              	.LVL5:
  25:src/main.cpp  ****  TCB::trenutnaNit = threads[0];
 121              		.loc 1 25 2 is_stmt 1
GAS LISTING /tmp/ccWpO0hZ.s 			page 7


 122              		.loc 1 25 19 is_stmt 0
 123 009c 033784FC 		ld	a4,-56(s0)
 124 00a0 97070000 		la	a5,_ZN3TCB11trenutnaNitE
 124      83B70700 
 125 00a8 23B0E700 		sd	a4,0(a5)
  26:src/main.cpp  **** 
  27:src/main.cpp  **** 
  28:src/main.cpp  ****  thread_create(&threads[1], &wrapperMain, nullptr);
 126              		.loc 1 28 2 is_stmt 1
 127              		.loc 1 28 15 is_stmt 0
 128 00ac 13060000 		li	a2,0
 129 00b0 97050000 		lla	a1,_Z11wrapperMainPv
 129      93850500 
 130 00b8 130504FD 		addi	a0,s0,-48
 131 00bc 97000000 		call	_Z13thread_createPP3TCBPFvPvES2_@plt
 131      E7800000 
 132              	.LVL6:
 133              	.L5:
  29:src/main.cpp  **** 
  30:src/main.cpp  **** 
  31:src/main.cpp  ****  while( !threads[1]->daLiJeZavrsena())
 134              		.loc 1 31 2 is_stmt 1
 135              		.loc 1 31 9
 136              		.loc 1 31 19 is_stmt 0
 137 00c4 833704FD 		ld	a5,-48(s0)
 138              	.LVL7:
 139              	.LBB16:
 140              	.LBB17:
 141              		.file 4 "src/../h/TCB.hpp"
   1:src/../h/TCB.hpp **** #ifndef _TCB_
   2:src/../h/TCB.hpp **** #define _TCB_
   3:src/../h/TCB.hpp **** 
   4:src/../h/TCB.hpp **** #include "../lib/hw.h"
   5:src/../h/TCB.hpp **** #include "Scheduler.hpp"
   6:src/../h/TCB.hpp **** #include "MemoryAllocator.hpp"
   7:src/../h/TCB.hpp **** 
   8:src/../h/TCB.hpp **** class TCB;
   9:src/../h/TCB.hpp **** class Thread;
  10:src/../h/TCB.hpp **** 
  11:src/../h/TCB.hpp **** using thread_t = TCB*;
  12:src/../h/TCB.hpp **** 
  13:src/../h/TCB.hpp **** class TCB
  14:src/../h/TCB.hpp **** {
  15:src/../h/TCB.hpp **** public:
  16:src/../h/TCB.hpp ****     using Telo = void(*)(void*);
  17:src/../h/TCB.hpp **** 
  18:src/../h/TCB.hpp **** private:
  19:src/../h/TCB.hpp ****    struct Context
  20:src/../h/TCB.hpp ****    {
  21:src/../h/TCB.hpp ****      uint64 ra;
  22:src/../h/TCB.hpp ****      uint64 sp;
  23:src/../h/TCB.hpp ****    };
  24:src/../h/TCB.hpp **** 
  25:src/../h/TCB.hpp ****    Telo telo;
  26:src/../h/TCB.hpp ****    uint64 *stek;
  27:src/../h/TCB.hpp ****    Context context;
  28:src/../h/TCB.hpp ****    void *argumenti;
GAS LISTING /tmp/ccWpO0hZ.s 			page 8


  29:src/../h/TCB.hpp ****    bool zavrsena;
  30:src/../h/TCB.hpp ****    bool blokirana;
  31:src/../h/TCB.hpp **** 
  32:src/../h/TCB.hpp ****    TCB(Telo body, void* argumenti, void *stek);
  33:src/../h/TCB.hpp **** 
  34:src/../h/TCB.hpp ****    static void popSppSpie();
  35:src/../h/TCB.hpp **** 
  36:src/../h/TCB.hpp ****    static void yield(Context *, Context*);
  37:src/../h/TCB.hpp **** 
  38:src/../h/TCB.hpp ****    friend Thread;
  39:src/../h/TCB.hpp **** 
  40:src/../h/TCB.hpp **** public:
  41:src/../h/TCB.hpp **** 
  42:src/../h/TCB.hpp ****    static void wrapper();
  43:src/../h/TCB.hpp **** 
  44:src/../h/TCB.hpp ****    static int napraviNit(thread_t* handle, Telo telo, void* argumenti, void* stek)
  45:src/../h/TCB.hpp ****    {
  46:src/../h/TCB.hpp ****      *handle = (thread_t) new TCB(telo, argumenti, stek);
  47:src/../h/TCB.hpp ****      if(telo != nullptr)
  48:src/../h/TCB.hpp ****        Scheduler::stavi(*handle);
  49:src/../h/TCB.hpp ****      return 0;
  50:src/../h/TCB.hpp ****    }
  51:src/../h/TCB.hpp ****    static int napraviNitNeZapocni(thread_t* handle, Telo telo, void* argumenti, void* stek)
  52:src/../h/TCB.hpp ****    {
  53:src/../h/TCB.hpp ****        *handle = (thread_t) new TCB(telo, argumenti, stek);
  54:src/../h/TCB.hpp ****        return 0;
  55:src/../h/TCB.hpp ****    }
  56:src/../h/TCB.hpp **** 
  57:src/../h/TCB.hpp ****    static void start(TCB* nit)
  58:src/../h/TCB.hpp ****    {
  59:src/../h/TCB.hpp ****      if(nit->telo != nullptr)
  60:src/../h/TCB.hpp ****        Scheduler::stavi(nit);
  61:src/../h/TCB.hpp ****    }
  62:src/../h/TCB.hpp ****    static void dispatch();
  63:src/../h/TCB.hpp ****    static void exit();
  64:src/../h/TCB.hpp **** 
  65:src/../h/TCB.hpp ****    static TCB* trenutnaNit;
  66:src/../h/TCB.hpp **** 
  67:src/../h/TCB.hpp ****    bool daLiJeZavrsena() const
  68:src/../h/TCB.hpp ****    {
  69:src/../h/TCB.hpp ****       return zavrsena;
 142              		.loc 4 69 7 is_stmt 1
 143              		.loc 4 69 14 is_stmt 0
 144 00c8 83C78702 		lbu	a5,40(a5)
 145              	.LVL8:
 146              	.LBE17:
 147              	.LBE16:
 148              		.loc 1 31 9
 149 00cc 63980700 		bnez	a5,.L4
  32:src/main.cpp  **** {
  33:src/main.cpp  ****   thread_dispatch();
 150              		.loc 1 33 3 is_stmt 1
 151              		.loc 1 33 18 is_stmt 0
 152 00d0 97000000 		call	_Z15thread_dispatchv@plt
 152      E7800000 
 153              	.LVL9:
 154 00d8 6FF0DFFE 		j	.L5
GAS LISTING /tmp/ccWpO0hZ.s 			page 9


 155              	.L4:
  34:src/main.cpp  **** }
  35:src/main.cpp  **** 
  36:src/main.cpp  ****  return 0;
 156              		.loc 1 36 2 is_stmt 1
  37:src/main.cpp  **** 
  38:src/main.cpp  **** }...
 157              		.loc 1 38 1 is_stmt 0
 158 00dc 13050000 		li	a0,0
 159 00e0 83308103 		ld	ra,56(sp)
 160              		.cfi_restore 1
 161 00e4 03340103 		ld	s0,48(sp)
 162              		.cfi_restore 8
 163              		.cfi_def_cfa 2, 64
 164 00e8 13010104 		addi	sp,sp,64
 165              		.cfi_def_cfa_offset 0
 166 00ec 67800000 		jr	ra
 167              		.cfi_endproc
 168              	.LFE39:
 170              	.Letext0:
 171              		.file 5 "src/../h/../lib/hw.h"
 172              		.file 6 "src/../h/syscall_c.h"
GAS LISTING /tmp/ccWpO0hZ.s 			page 10

