GAS LISTING /tmp/ccJbie8r.s 			page 1


   1              		.file	"NewDelete.cpp"
   2              		.option pic
   3              		.option norelax
   4              		.text
   5              	.Ltext0:
   6              		.align	2
   7              		.globl	_Znwm
   9              	_Znwm:
  10              	.LFB20:
  11              		.file 1 "src/NewDelete.cpp"
   1:src/NewDelete.cpp **** //
   2:src/NewDelete.cpp **** // Created by os on 8/20/24.
   3:src/NewDelete.cpp **** //
   4:src/NewDelete.cpp **** 
   5:src/NewDelete.cpp **** #include "../h/syscall_c.h"
   6:src/NewDelete.cpp **** 
   7:src/NewDelete.cpp **** void* operator new(size_t velicina)
   8:src/NewDelete.cpp **** {
  12              		.loc 1 8 1
  13              		.cfi_startproc
  14              	.LVL0:
  15 0000 130101FF 		addi	sp,sp,-16
  16              		.cfi_def_cfa_offset 16
  17 0004 23341100 		sd	ra,8(sp)
  18 0008 23308100 		sd	s0,0(sp)
  19              		.cfi_offset 1, -8
  20              		.cfi_offset 8, -16
  21 000c 13040101 		addi	s0,sp,16
  22              		.cfi_def_cfa 8, 0
   9:src/NewDelete.cpp ****   return mem_alloc(velicina);
  23              		.loc 1 9 3
  24              		.loc 1 9 19 is_stmt 0
  25 0010 97000000 		call	_Z9mem_allocm@plt
  25      E7800000 
  26              	.LVL1:
  10:src/NewDelete.cpp **** }
  27              		.loc 1 10 1
  28 0018 83308100 		ld	ra,8(sp)
  29              		.cfi_restore 1
  30 001c 03340100 		ld	s0,0(sp)
  31              		.cfi_restore 8
  32              		.cfi_def_cfa 2, 16
  33 0020 13010101 		addi	sp,sp,16
  34              		.cfi_def_cfa_offset 0
  35 0024 67800000 		jr	ra
  36              		.cfi_endproc
  37              	.LFE20:
  39              		.align	2
  40              		.globl	_Znam
  42              	_Znam:
  43              	.LFB21:
  11:src/NewDelete.cpp **** 
  12:src/NewDelete.cpp **** void* operator new[](size_t velicina)
  13:src/NewDelete.cpp **** {
  44              		.loc 1 13 1 is_stmt 1
  45              		.cfi_startproc
  46              	.LVL2:
GAS LISTING /tmp/ccJbie8r.s 			page 2


  47 0028 130101FF 		addi	sp,sp,-16
  48              		.cfi_def_cfa_offset 16
  49 002c 23341100 		sd	ra,8(sp)
  50 0030 23308100 		sd	s0,0(sp)
  51              		.cfi_offset 1, -8
  52              		.cfi_offset 8, -16
  53 0034 13040101 		addi	s0,sp,16
  54              		.cfi_def_cfa 8, 0
  14:src/NewDelete.cpp ****   return mem_alloc(velicina);
  55              		.loc 1 14 3
  56              		.loc 1 14 19 is_stmt 0
  57 0038 97000000 		call	_Z9mem_allocm@plt
  57      E7800000 
  58              	.LVL3:
  15:src/NewDelete.cpp **** }
  59              		.loc 1 15 1
  60 0040 83308100 		ld	ra,8(sp)
  61              		.cfi_restore 1
  62 0044 03340100 		ld	s0,0(sp)
  63              		.cfi_restore 8
  64              		.cfi_def_cfa 2, 16
  65 0048 13010101 		addi	sp,sp,16
  66              		.cfi_def_cfa_offset 0
  67 004c 67800000 		jr	ra
  68              		.cfi_endproc
  69              	.LFE21:
  71              		.align	2
  72              		.globl	_ZdlPv
  74              	_ZdlPv:
  75              	.LFB22:
  16:src/NewDelete.cpp **** 
  17:src/NewDelete.cpp **** void operator delete(void* pokazivac) noexcept
  18:src/NewDelete.cpp **** {
  76              		.loc 1 18 1 is_stmt 1
  77              		.cfi_startproc
  78              		.cfi_personality 0x9b,DW.ref.__gxx_personality_v0
  79              		.cfi_lsda 0x1b,.LLSDA22
  80              	.LVL4:
  81 0050 130101FF 		addi	sp,sp,-16
  82              		.cfi_def_cfa_offset 16
  83 0054 23341100 		sd	ra,8(sp)
  84 0058 23308100 		sd	s0,0(sp)
  85              		.cfi_offset 1, -8
  86              		.cfi_offset 8, -16
  87 005c 13040101 		addi	s0,sp,16
  88              		.cfi_def_cfa 8, 0
  19:src/NewDelete.cpp ****   mem_free(pokazivac);
  89              		.loc 1 19 3
  90              		.loc 1 19 11 is_stmt 0
  91 0060 97000000 		call	_Z8mem_freePv@plt
  91      E7800000 
  92              	.LVL5:
  20:src/NewDelete.cpp **** }
  93              		.loc 1 20 1
  94 0068 83308100 		ld	ra,8(sp)
  95              		.cfi_restore 1
  96 006c 03340100 		ld	s0,0(sp)
GAS LISTING /tmp/ccJbie8r.s 			page 3


  97              		.cfi_restore 8
  98              		.cfi_def_cfa 2, 16
  99 0070 13010101 		addi	sp,sp,16
 100              		.cfi_def_cfa_offset 0
 101 0074 67800000 		jr	ra
 102              		.cfi_endproc
 103              	.LFE22:
 104              		.globl	__gxx_personality_v0
 105              		.section	.gcc_except_table,"a",@progbits
 106              	.LLSDA22:
 107 0000 FF       		.byte	0xff
 108 0001 FF       		.byte	0xff
 109 0002 03       		.byte	0x3
 110 0003 00       		.byte	0
 111              		.text
 113              		.align	2
 114              		.globl	_ZdaPv
 116              	_ZdaPv:
 117              	.LFB23:
  21:src/NewDelete.cpp **** 
  22:src/NewDelete.cpp **** void operator delete[](void* pokazivac) noexcept
  23:src/NewDelete.cpp **** {
 118              		.loc 1 23 1 is_stmt 1
 119              		.cfi_startproc
 120              		.cfi_personality 0x9b,DW.ref.__gxx_personality_v0
 121              		.cfi_lsda 0x1b,.LLSDA23
 122              	.LVL6:
 123 0078 130101FF 		addi	sp,sp,-16
 124              		.cfi_def_cfa_offset 16
 125 007c 23341100 		sd	ra,8(sp)
 126 0080 23308100 		sd	s0,0(sp)
 127              		.cfi_offset 1, -8
 128              		.cfi_offset 8, -16
 129 0084 13040101 		addi	s0,sp,16
 130              		.cfi_def_cfa 8, 0
  24:src/NewDelete.cpp ****   mem_free(pokazivac);
 131              		.loc 1 24 3
 132              		.loc 1 24 11 is_stmt 0
 133 0088 97000000 		call	_Z8mem_freePv@plt
 133      E7800000 
 134              	.LVL7:
  25:src/NewDelete.cpp **** }
 135              		.loc 1 25 1
 136 0090 83308100 		ld	ra,8(sp)
 137              		.cfi_restore 1
 138 0094 03340100 		ld	s0,0(sp)
 139              		.cfi_restore 8
 140              		.cfi_def_cfa 2, 16
 141 0098 13010101 		addi	sp,sp,16
 142              		.cfi_def_cfa_offset 0
 143 009c 67800000 		jr	ra
 144              		.cfi_endproc
 145              	.LFE23:
 146              		.section	.gcc_except_table
 147              	.LLSDA23:
 148 0004 FF       		.byte	0xff
 149 0005 FF       		.byte	0xff
GAS LISTING /tmp/ccJbie8r.s 			page 4


 150 0006 03       		.byte	0x3
 151 0007 00       		.byte	0
 152              		.text
 154              	.Letext0:
 155              		.file 2 "src/../h/../lib/hw.h"
 156              		.file 3 "src/../h/syscall_c.h"
 820              		.align	3
 823              	DW.ref.__gxx_personality_v0:
 824 0000 00000000 		.dword	__gxx_personality_v0
 824      00000000 
 825              		.ident	"GCC: (Ubuntu 9.4.0-1ubuntu1~20.04) 9.4.0"
 826              		.section	.note.GNU-stack,"",@progbits
GAS LISTING /tmp/ccJbie8r.s 			page 5


DEFINED SYMBOLS
                            *ABS*:0000000000000000 NewDelete.cpp
     /tmp/ccJbie8r.s:9      .text:0000000000000000 _Znwm
     /tmp/ccJbie8r.s:13     .text:0000000000000000 .L0 
     /tmp/ccJbie8r.s:15     .text:0000000000000000 .L0 
     /tmp/ccJbie8r.s:16     .text:0000000000000004 .L0 
     /tmp/ccJbie8r.s:19     .text:000000000000000c .L0 
     /tmp/ccJbie8r.s:20     .text:000000000000000c .L0 
     /tmp/ccJbie8r.s:22     .text:0000000000000010 .L0 
     /tmp/ccJbie8r.s:24     .text:0000000000000010 .L0 
     /tmp/ccJbie8r.s:25     .text:0000000000000010 .L0 
     /tmp/ccJbie8r.s:28     .text:0000000000000018 .L0 
     /tmp/ccJbie8r.s:29     .text:000000000000001c .L0 
     /tmp/ccJbie8r.s:31     .text:0000000000000020 .L0 
     /tmp/ccJbie8r.s:32     .text:0000000000000020 .L0 
     /tmp/ccJbie8r.s:34     .text:0000000000000024 .L0 
     /tmp/ccJbie8r.s:36     .text:0000000000000028 .L0 
     /tmp/ccJbie8r.s:42     .text:0000000000000028 _Znam
     /tmp/ccJbie8r.s:45     .text:0000000000000028 .L0 
     /tmp/ccJbie8r.s:47     .text:0000000000000028 .L0 
     /tmp/ccJbie8r.s:48     .text:000000000000002c .L0 
     /tmp/ccJbie8r.s:51     .text:0000000000000034 .L0 
     /tmp/ccJbie8r.s:52     .text:0000000000000034 .L0 
     /tmp/ccJbie8r.s:54     .text:0000000000000038 .L0 
     /tmp/ccJbie8r.s:56     .text:0000000000000038 .L0 
     /tmp/ccJbie8r.s:57     .text:0000000000000038 .L0 
     /tmp/ccJbie8r.s:60     .text:0000000000000040 .L0 
     /tmp/ccJbie8r.s:61     .text:0000000000000044 .L0 
     /tmp/ccJbie8r.s:63     .text:0000000000000048 .L0 
     /tmp/ccJbie8r.s:64     .text:0000000000000048 .L0 
     /tmp/ccJbie8r.s:66     .text:000000000000004c .L0 
     /tmp/ccJbie8r.s:68     .text:0000000000000050 .L0 
     /tmp/ccJbie8r.s:74     .text:0000000000000050 _ZdlPv
     /tmp/ccJbie8r.s:77     .text:0000000000000050 .L0 
     /tmp/ccJbie8r.s:823    .data.rel.local.DW.ref.__gxx_personality_v0:0000000000000000 DW.ref.__gxx_personality_v0
     /tmp/ccJbie8r.s:81     .text:0000000000000050 .L0 
     /tmp/ccJbie8r.s:82     .text:0000000000000054 .L0 
     /tmp/ccJbie8r.s:85     .text:000000000000005c .L0 
     /tmp/ccJbie8r.s:86     .text:000000000000005c .L0 
     /tmp/ccJbie8r.s:88     .text:0000000000000060 .L0 
     /tmp/ccJbie8r.s:90     .text:0000000000000060 .L0 
     /tmp/ccJbie8r.s:91     .text:0000000000000060 .L0 
     /tmp/ccJbie8r.s:94     .text:0000000000000068 .L0 
     /tmp/ccJbie8r.s:95     .text:000000000000006c .L0 
     /tmp/ccJbie8r.s:97     .text:0000000000000070 .L0 
     /tmp/ccJbie8r.s:98     .text:0000000000000070 .L0 
     /tmp/ccJbie8r.s:100    .text:0000000000000074 .L0 
     /tmp/ccJbie8r.s:102    .text:0000000000000078 .L0 
     /tmp/ccJbie8r.s:116    .text:0000000000000078 _ZdaPv
     /tmp/ccJbie8r.s:119    .text:0000000000000078 .L0 
     /tmp/ccJbie8r.s:123    .text:0000000000000078 .L0 
     /tmp/ccJbie8r.s:124    .text:000000000000007c .L0 
     /tmp/ccJbie8r.s:127    .text:0000000000000084 .L0 
     /tmp/ccJbie8r.s:128    .text:0000000000000084 .L0 
     /tmp/ccJbie8r.s:130    .text:0000000000000088 .L0 
     /tmp/ccJbie8r.s:132    .text:0000000000000088 .L0 
     /tmp/ccJbie8r.s:133    .text:0000000000000088 .L0 
GAS LISTING /tmp/ccJbie8r.s 			page 6


     /tmp/ccJbie8r.s:136    .text:0000000000000090 .L0 
     /tmp/ccJbie8r.s:137    .text:0000000000000094 .L0 
     /tmp/ccJbie8r.s:139    .text:0000000000000098 .L0 
     /tmp/ccJbie8r.s:140    .text:0000000000000098 .L0 
     /tmp/ccJbie8r.s:142    .text:000000000000009c .L0 
     /tmp/ccJbie8r.s:144    .text:00000000000000a0 .L0 
     /tmp/ccJbie8r.s:157    .text:00000000000000a0 .L0 
     /tmp/ccJbie8r.s:425    .debug_abbrev:0000000000000000 .Ldebug_abbrev0
     /tmp/ccJbie8r.s:807    .debug_str:000000000000019b .LASF32
     /tmp/ccJbie8r.s:815    .debug_str:000000000000028b .LASF33
     /tmp/ccJbie8r.s:795    .debug_str:0000000000000137 .LASF34
     /tmp/ccJbie8r.s:5      .text:0000000000000000 .Ltext0
     /tmp/ccJbie8r.s:154    .text:00000000000000a0 .Letext0
     /tmp/ccJbie8r.s:745    .debug_line:0000000000000000 .Ldebug_line0
     /tmp/ccJbie8r.s:781    .debug_str:00000000000000d0 .LASF0
     /tmp/ccJbie8r.s:783    .debug_str:00000000000000dd .LASF1
     /tmp/ccJbie8r.s:777    .debug_str:00000000000000af .LASF2
     /tmp/ccJbie8r.s:771    .debug_str:000000000000009b .LASF4
     /tmp/ccJbie8r.s:799    .debug_str:000000000000015c .LASF3
     /tmp/ccJbie8r.s:749    .debug_str:0000000000000010 .LASF5
     /tmp/ccJbie8r.s:785    .debug_str:00000000000000f0 .LASF6
     /tmp/ccJbie8r.s:779    .debug_str:00000000000000bd .LASF7
     /tmp/ccJbie8r.s:811    .debug_str:000000000000026e .LASF8
     /tmp/ccJbie8r.s:767    .debug_str:0000000000000084 .LASF9
     /tmp/ccJbie8r.s:789    .debug_str:0000000000000109 .LASF10
     /tmp/ccJbie8r.s:809    .debug_str:000000000000025f .LASF11
     /tmp/ccJbie8r.s:751    .debug_str:0000000000000017 .LASF12
     /tmp/ccJbie8r.s:747    .debug_str:0000000000000000 .LASF13
     /tmp/ccJbie8r.s:753    .debug_str:0000000000000027 .LASF14
     /tmp/ccJbie8r.s:793    .debug_str:0000000000000121 .LASF15
     /tmp/ccJbie8r.s:757    .debug_str:0000000000000041 .LASF16
     /tmp/ccJbie8r.s:759    .debug_str:0000000000000057 .LASF17
     /tmp/ccJbie8r.s:805    .debug_str:0000000000000188 .LASF18
     /tmp/ccJbie8r.s:797    .debug_str:0000000000000155 .LASF20
     /tmp/ccJbie8r.s:117    .text:0000000000000078 .LFB23
     /tmp/ccJbie8r.s:145    .text:00000000000000a0 .LFE23
     /tmp/ccJbie8r.s:763    .debug_str:000000000000006a .LASF22
     /tmp/ccJbie8r.s:676    .debug_loc:0000000000000000 .LLST3
     /tmp/ccJbie8r.s:134    .text:0000000000000090 .LVL7
     /tmp/ccJbie8r.s:803    .debug_str:0000000000000178 .LASF19
     /tmp/ccJbie8r.s:775    .debug_str:00000000000000a8 .LASF21
     /tmp/ccJbie8r.s:75     .text:0000000000000050 .LFB22
     /tmp/ccJbie8r.s:103    .text:0000000000000078 .LFE22
     /tmp/ccJbie8r.s:690    .debug_loc:0000000000000039 .LLST2
     /tmp/ccJbie8r.s:92     .text:0000000000000068 .LVL5
     /tmp/ccJbie8r.s:765    .debug_str:0000000000000074 .LASF24
     /tmp/ccJbie8r.s:787    .debug_str:0000000000000103 .LASF26
     /tmp/ccJbie8r.s:43     .text:0000000000000028 .LFB21
     /tmp/ccJbie8r.s:69     .text:0000000000000050 .LFE21
     /tmp/ccJbie8r.s:769    .debug_str:0000000000000092 .LASF23
     /tmp/ccJbie8r.s:704    .debug_loc:0000000000000072 .LLST1
     /tmp/ccJbie8r.s:58     .text:0000000000000040 .LVL3
     /tmp/ccJbie8r.s:813    .debug_str:000000000000027e .LASF25
     /tmp/ccJbie8r.s:773    .debug_str:00000000000000a2 .LASF27
     /tmp/ccJbie8r.s:10     .text:0000000000000000 .LFB20
     /tmp/ccJbie8r.s:37     .text:0000000000000028 .LFE20
     /tmp/ccJbie8r.s:718    .debug_loc:00000000000000ab .LLST0
GAS LISTING /tmp/ccJbie8r.s 			page 7


     /tmp/ccJbie8r.s:26     .text:0000000000000018 .LVL1
     /tmp/ccJbie8r.s:761    .debug_str:000000000000005c .LASF28
     /tmp/ccJbie8r.s:791    .debug_str:0000000000000118 .LASF30
     /tmp/ccJbie8r.s:755    .debug_str:0000000000000033 .LASF29
     /tmp/ccJbie8r.s:801    .debug_str:000000000000016e .LASF31
     /tmp/ccJbie8r.s:122    .text:0000000000000078 .LVL6
     /tmp/ccJbie8r.s:80     .text:0000000000000050 .LVL4
     /tmp/ccJbie8r.s:46     .text:0000000000000028 .LVL2
     /tmp/ccJbie8r.s:14     .text:0000000000000000 .LVL0
     /tmp/ccJbie8r.s:158    .debug_info:0000000000000000 .Ldebug_info0
     /tmp/ccJbie8r.s:106    .gcc_except_table:0000000000000000 .LLSDA22
     /tmp/ccJbie8r.s:147    .gcc_except_table:0000000000000004 .LLSDA23

UNDEFINED SYMBOLS
_Z9mem_allocm
_Z8mem_freePv
__gxx_personality_v0
