GAS LISTING /tmp/cc73pAGw.s 			page 1


   1              		.file	"TCB.cpp"
   2              		.option pic
   3              		.option norelax
   4              		.text
   5              	.Ltext0:
   6              		.align	2
   7              		.globl	_ZN3TCBC2EPFvPvES0_S0_
   9              	_ZN3TCBC2EPFvPvES0_S0_:
  10              	.LFB21:
  11              		.file 1 "src/TCB.cpp"
   1:src/TCB.cpp   **** //
   2:src/TCB.cpp   **** // Created by os on 8/19/24.
   3:src/TCB.cpp   **** //
   4:src/TCB.cpp   **** 
   5:src/TCB.cpp   **** #include "../h/TCB.hpp"
   6:src/TCB.cpp   **** #include "../h/syscall_c.h"
   7:src/TCB.cpp   **** 
   8:src/TCB.cpp   **** 
   9:src/TCB.cpp   **** TCB* TCB::trenutnaNit = nullptr;
  10:src/TCB.cpp   **** 
  11:src/TCB.cpp   **** TCB::TCB(Telo telo, void* argumenti, void* stek) : telo(telo), stek(telo != nullptr ? new uint64[DE
  12              		.loc 1 11 1
  13              		.cfi_startproc
  14              	.LVL0:
  15 0000 130101FD 		addi	sp,sp,-48
  16              		.cfi_def_cfa_offset 48
  17 0004 23341102 		sd	ra,40(sp)
  18 0008 23308102 		sd	s0,32(sp)
  19 000c 233C9100 		sd	s1,24(sp)
  20 0010 23382101 		sd	s2,16(sp)
  21 0014 23343101 		sd	s3,8(sp)
  22              		.cfi_offset 1, -8
  23              		.cfi_offset 8, -16
  24              		.cfi_offset 9, -24
  25              		.cfi_offset 18, -32
  26              		.cfi_offset 19, -40
  27 0018 13040103 		addi	s0,sp,48
  28              		.cfi_def_cfa 8, 0
  29 001c 93040500 		mv	s1,a0
  30 0020 13890500 		mv	s2,a1
  31 0024 93090600 		mv	s3,a2
  32              	.LBB10:
  12:src/TCB.cpp   **** , context(
  13:src/TCB.cpp   **** {((uint64) &TCB::wrapper),
  14:src/TCB.cpp   ****  telo == nullptr ? 0 : (uint64) &this->stek[DEFAULT_STACK_SIZE]}), argumenti(argumenti), zavrsena(f
  33              		.loc 1 14 122 is_stmt 0
  34 0028 2330B500 		sd	a1,0(a0)
  11:src/TCB.cpp   **** , context(
  35              		.loc 1 11 85
  36 002c 638C0504 		beqz	a1,.L4
  11:src/TCB.cpp   **** , context(
  37              		.loc 1 11 116 discriminator 1
  38 0030 37850000 		li	a0,32768
  39              	.LVL1:
  40 0034 97000000 		call	_Znam@plt
  40      E7800000 
  41              	.LVL2:
GAS LISTING /tmp/cc73pAGw.s 			page 2


  42              	.L2:
  43              		.loc 1 14 122
  44 003c 23B4A400 		sd	a0,8(s1)
  45 0040 97070000 		lla	a5,_ZN3TCB7wrapperEv
  45      93870700 
  46 0048 23B8F400 		sd	a5,16(s1)
  47              		.loc 1 14 18
  48 004c 63000904 		beqz	s2,.L5
  49              		.loc 1 14 33 discriminator 1
  50 0050 B7870000 		li	a5,32768
  51 0054 3305F500 		add	a0,a0,a5
  52              	.L3:
  53              		.loc 1 14 122 discriminator 4
  54 0058 23BCA400 		sd	a0,24(s1)
  55 005c 23B03403 		sd	s3,32(s1)
  56 0060 23840402 		sb	zero,40(s1)
  57 0064 A3840402 		sb	zero,41(s1)
  58              	.LBE10:
  59              		.loc 1 14 125 discriminator 4
  60 0068 83308102 		ld	ra,40(sp)
  61              		.cfi_remember_state
  62              		.cfi_restore 1
  63 006c 03340102 		ld	s0,32(sp)
  64              		.cfi_restore 8
  65              		.cfi_def_cfa 2, 48
  66 0070 83348101 		ld	s1,24(sp)
  67              		.cfi_restore 9
  68              	.LVL3:
  69 0074 03390101 		ld	s2,16(sp)
  70              		.cfi_restore 18
  71              	.LVL4:
  72 0078 83398100 		ld	s3,8(sp)
  73              		.cfi_restore 19
  74              	.LVL5:
  75 007c 13010103 		addi	sp,sp,48
  76              		.cfi_def_cfa_offset 0
  77 0080 67800000 		jr	ra
  78              	.LVL6:
  79              	.L4:
  80              		.cfi_restore_state
  81              	.LBB11:
  11:src/TCB.cpp   **** , context(
  82              		.loc 1 11 85
  83 0084 13050000 		li	a0,0
  84 0088 6FF05FFB 		j	.L2
  85              	.LVL7:
  86              	.L5:
  87              		.loc 1 14 18
  88 008c 13050000 		li	a0,0
  89 0090 6FF09FFC 		j	.L3
  90              	.LBE11:
  91              		.cfi_endproc
  92              	.LFE21:
  94              		.globl	_ZN3TCBC1EPFvPvES0_S0_
  95              		.set	_ZN3TCBC1EPFvPvES0_S0_,_ZN3TCBC2EPFvPvES0_S0_
  96              		.align	2
  97              		.globl	_ZN3TCB8dispatchEv
GAS LISTING /tmp/cc73pAGw.s 			page 3


  99              	_ZN3TCB8dispatchEv:
 100              	.LFB24:
  15:src/TCB.cpp   **** 
  16:src/TCB.cpp   **** void TCB::wrapper()
  17:src/TCB.cpp   **** {
  18:src/TCB.cpp   ****   popSppSpie();
  19:src/TCB.cpp   ****   trenutnaNit->telo((void*) trenutnaNit->argumenti);
  20:src/TCB.cpp   ****   trenutnaNit->postaviStatus(true);
  21:src/TCB.cpp   ****   thread_dispatch();
  22:src/TCB.cpp   **** }
  23:src/TCB.cpp   **** 
  24:src/TCB.cpp   **** void TCB::dispatch()
  25:src/TCB.cpp   **** {
 101              		.loc 1 25 1 is_stmt 1
 102              		.cfi_startproc
 103 0094 130101FE 		addi	sp,sp,-32
 104              		.cfi_def_cfa_offset 32
 105 0098 233C1100 		sd	ra,24(sp)
 106 009c 23388100 		sd	s0,16(sp)
 107 00a0 23349100 		sd	s1,8(sp)
 108              		.cfi_offset 1, -8
 109              		.cfi_offset 8, -16
 110              		.cfi_offset 9, -24
 111 00a4 13040102 		addi	s0,sp,32
 112              		.cfi_def_cfa 8, 0
  26:src/TCB.cpp   ****   TCB* staraNit = trenutnaNit;
 113              		.loc 1 26 3
 114              		.loc 1 26 8 is_stmt 0
 115 00a8 97040000 		ld	s1,.LANCHOR0
 115      83B40400 
 116              	.LVL8:
  27:src/TCB.cpp   ****   if(!staraNit->daLiJeZavrsena() && !staraNit->daLiJeBlokirana())
 117              		.loc 1 27 3 is_stmt 1
 118              	.LBB12:
 119              	.LBB13:
 120              		.file 2 "src/../h/TCB.hpp"
   1:src/../h/TCB.hpp **** #ifndef _TCB_
   2:src/../h/TCB.hpp **** #define _TCB_
   3:src/../h/TCB.hpp **** 
   4:src/../h/TCB.hpp **** #include "../lib/hw.h"
   5:src/../h/TCB.hpp **** #include "Scheduler.hpp"
   6:src/../h/TCB.hpp **** #include "MemoryAllocator.hpp"
   7:src/../h/TCB.hpp **** 
   8:src/../h/TCB.hpp **** class TCB;
   9:src/../h/TCB.hpp **** class Thread;
  10:src/../h/TCB.hpp **** 
  11:src/../h/TCB.hpp **** using thread_t = TCB*;
  12:src/../h/TCB.hpp **** 
  13:src/../h/TCB.hpp **** class TCB
  14:src/../h/TCB.hpp **** {
  15:src/../h/TCB.hpp **** public:
  16:src/../h/TCB.hpp ****     using Telo = void(*)(void*);
  17:src/../h/TCB.hpp **** 
  18:src/../h/TCB.hpp **** private:
  19:src/../h/TCB.hpp ****    struct Context
  20:src/../h/TCB.hpp ****    {
  21:src/../h/TCB.hpp ****      uint64 ra;
GAS LISTING /tmp/cc73pAGw.s 			page 4


  22:src/../h/TCB.hpp ****      uint64 sp;
  23:src/../h/TCB.hpp ****    };
  24:src/../h/TCB.hpp **** 
  25:src/../h/TCB.hpp ****    Telo telo;
  26:src/../h/TCB.hpp ****    uint64 *stek;
  27:src/../h/TCB.hpp ****    Context context;
  28:src/../h/TCB.hpp ****    void *argumenti;
  29:src/../h/TCB.hpp ****    bool zavrsena;
  30:src/../h/TCB.hpp ****    bool blokirana;
  31:src/../h/TCB.hpp **** 
  32:src/../h/TCB.hpp ****    TCB(Telo body, void* argumenti, void *stek);
  33:src/../h/TCB.hpp **** 
  34:src/../h/TCB.hpp ****    static void popSppSpie();
  35:src/../h/TCB.hpp **** 
  36:src/../h/TCB.hpp ****    static void yield(Context *, Context*);
  37:src/../h/TCB.hpp **** 
  38:src/../h/TCB.hpp ****    friend Thread;
  39:src/../h/TCB.hpp **** 
  40:src/../h/TCB.hpp **** public:
  41:src/../h/TCB.hpp **** 
  42:src/../h/TCB.hpp ****    static void wrapper();
  43:src/../h/TCB.hpp **** 
  44:src/../h/TCB.hpp ****    static int napraviNit(thread_t* handle, Telo telo, void* argumenti, void* stek)
  45:src/../h/TCB.hpp ****    {
  46:src/../h/TCB.hpp ****      *handle = (thread_t) new TCB(telo, argumenti, stek);
  47:src/../h/TCB.hpp ****      if(telo != nullptr)
  48:src/../h/TCB.hpp ****        Scheduler::stavi(*handle);
  49:src/../h/TCB.hpp ****      return 0;
  50:src/../h/TCB.hpp ****    }
  51:src/../h/TCB.hpp ****    static int napraviNitNeZapocni(thread_t* handle, Telo telo, void* argumenti, void* stek)
  52:src/../h/TCB.hpp ****    {
  53:src/../h/TCB.hpp ****        *handle = (thread_t) new TCB(telo, argumenti, stek);
  54:src/../h/TCB.hpp ****        return 0;
  55:src/../h/TCB.hpp ****    }
  56:src/../h/TCB.hpp **** 
  57:src/../h/TCB.hpp ****    static void start(TCB* nit)
  58:src/../h/TCB.hpp ****    {
  59:src/../h/TCB.hpp ****      if(nit->telo != nullptr)
  60:src/../h/TCB.hpp ****        Scheduler::stavi(nit);
  61:src/../h/TCB.hpp ****    }
  62:src/../h/TCB.hpp ****    static void dispatch();
  63:src/../h/TCB.hpp ****    static void exit();
  64:src/../h/TCB.hpp **** 
  65:src/../h/TCB.hpp ****    static TCB* trenutnaNit;
  66:src/../h/TCB.hpp **** 
  67:src/../h/TCB.hpp ****    bool daLiJeZavrsena() const
  68:src/../h/TCB.hpp ****    {
  69:src/../h/TCB.hpp ****       return zavrsena;
 121              		.loc 2 69 7
 122              		.loc 2 69 14 is_stmt 0
 123 00b0 83C78402 		lbu	a5,40(s1)
 124              	.LVL9:
 125              	.LBE13:
 126              	.LBE12:
 127              		.loc 1 27 34
 128 00b4 63960700 		bnez	a5,.L8
 129              	.LVL10:
GAS LISTING /tmp/cc73pAGw.s 			page 5


 130              	.LBB14:
 131              	.LBB15:
  70:src/../h/TCB.hpp ****    }
  71:src/../h/TCB.hpp **** 
  72:src/../h/TCB.hpp ****    void postaviStatus(bool status)
  73:src/../h/TCB.hpp ****    {
  74:src/../h/TCB.hpp ****      this->zavrsena = status;
  75:src/../h/TCB.hpp ****    }
  76:src/../h/TCB.hpp **** 
  77:src/../h/TCB.hpp ****    void blokiraj()
  78:src/../h/TCB.hpp ****    {
  79:src/../h/TCB.hpp ****      this->blokirana = true;
  80:src/../h/TCB.hpp ****    }
  81:src/../h/TCB.hpp ****    void odblokiraj()
  82:src/../h/TCB.hpp ****    {
  83:src/../h/TCB.hpp ****      this->blokirana = false;
  84:src/../h/TCB.hpp ****    }
  85:src/../h/TCB.hpp **** 
  86:src/../h/TCB.hpp ****    bool daLiJeBlokirana() const
  87:src/../h/TCB.hpp ****    {
  88:src/../h/TCB.hpp ****      return this->blokirana;
 132              		.loc 2 88 6 is_stmt 1
 133              		.loc 2 88 19 is_stmt 0
 134 00b8 83C79402 		lbu	a5,41(s1)
 135              	.LVL11:
 136              	.LBE15:
 137              	.LBE14:
 138              		.loc 1 27 34
 139 00bc 638E0702 		beqz	a5,.L11
 140              	.L8:
  28:src/TCB.cpp   ****   {
  29:src/TCB.cpp   ****     Scheduler::stavi(staraNit);
  30:src/TCB.cpp   ****   }
  31:src/TCB.cpp   **** 
  32:src/TCB.cpp   ****   trenutnaNit = Scheduler::uzmi();
 141              		.loc 1 32 3 is_stmt 1
 142              		.loc 1 32 32 is_stmt 0
 143 00c0 97000000 		call	_ZN9Scheduler4uzmiEv@plt
 143      E7800000 
 144              	.LVL12:
 145              		.loc 1 32 15
 146 00c8 97070000 		sd	a0,.LANCHOR0,a5
 146      23B0A700 
  33:src/TCB.cpp   **** 
  34:src/TCB.cpp   ****   if(staraNit != trenutnaNit)
 147              		.loc 1 34 3 is_stmt 1
 148 00d0 638AA400 		beq	s1,a0,.L7
  35:src/TCB.cpp   ****   {
  36:src/TCB.cpp   ****     TCB::yield(&staraNit->context, &trenutnaNit->context);
 149              		.loc 1 36 5
 150              		.loc 1 36 15 is_stmt 0
 151 00d4 93050501 		addi	a1,a0,16
 152 00d8 13850401 		addi	a0,s1,16
 153 00dc 97000000 		call	_ZN3TCB5yieldEPNS_7ContextES1_@plt
 153      E7800000 
 154              	.LVL13:
 155              	.L7:
GAS LISTING /tmp/cc73pAGw.s 			page 6


  37:src/TCB.cpp   ****   }
  38:src/TCB.cpp   **** }
 156              		.loc 1 38 1
 157 00e4 83308101 		ld	ra,24(sp)
 158              		.cfi_remember_state
 159              		.cfi_restore 1
 160 00e8 03340101 		ld	s0,16(sp)
 161              		.cfi_restore 8
 162              		.cfi_def_cfa 2, 32
 163 00ec 83348100 		ld	s1,8(sp)
 164              		.cfi_restore 9
 165              	.LVL14:
 166 00f0 13010102 		addi	sp,sp,32
 167              		.cfi_def_cfa_offset 0
 168 00f4 67800000 		jr	ra
 169              	.LVL15:
 170              	.L11:
 171              		.cfi_restore_state
  29:src/TCB.cpp   ****   }
 172              		.loc 1 29 5 is_stmt 1
  29:src/TCB.cpp   ****   }
 173              		.loc 1 29 21 is_stmt 0
 174 00f8 13850400 		mv	a0,s1
 175 00fc 97000000 		call	_ZN9Scheduler5staviEP3TCB@plt
 175      E7800000 
 176              	.LVL16:
 177 0104 6FF0DFFB 		j	.L8
 178              		.cfi_endproc
 179              	.LFE24:
 181              		.align	2
 182              		.globl	_ZN3TCB4exitEv
 184              	_ZN3TCB4exitEv:
 185              	.LFB25:
  39:src/TCB.cpp   **** 
  40:src/TCB.cpp   **** void TCB::exit()
  41:src/TCB.cpp   **** {
 186              		.loc 1 41 1 is_stmt 1
 187              		.cfi_startproc
 188 0108 130101FF 		addi	sp,sp,-16
 189              		.cfi_def_cfa_offset 16
 190 010c 23341100 		sd	ra,8(sp)
 191 0110 23308100 		sd	s0,0(sp)
 192              		.cfi_offset 1, -8
 193              		.cfi_offset 8, -16
 194 0114 13040101 		addi	s0,sp,16
 195              		.cfi_def_cfa 8, 0
  42:src/TCB.cpp   ****   trenutnaNit->postaviStatus(true);
 196              		.loc 1 42 3
 197              	.LVL17:
 198              	.LBB16:
 199              	.LBB17:
  74:src/../h/TCB.hpp ****    }
 200              		.loc 2 74 6
  74:src/../h/TCB.hpp ****    }
 201              		.loc 2 74 21 is_stmt 0
 202 0118 97070000 		ld	a5,.LANCHOR0
 202      83B70700 
GAS LISTING /tmp/cc73pAGw.s 			page 7


 203 0120 13071000 		li	a4,1
 204 0124 2384E702 		sb	a4,40(a5)
 205              	.LVL18:
 206              	.LBE17:
 207              	.LBE16:
  43:src/TCB.cpp   ****   dispatch();
 208              		.loc 1 43 3 is_stmt 1
 209              		.loc 1 43 11 is_stmt 0
 210 0128 97000000 		call	_ZN3TCB8dispatchEv
 210      E7800000 
 211              	.LVL19:
  44:src/TCB.cpp   **** }
 212              		.loc 1 44 1
 213 0130 83308100 		ld	ra,8(sp)
 214              		.cfi_restore 1
 215 0134 03340100 		ld	s0,0(sp)
 216              		.cfi_restore 8
 217              		.cfi_def_cfa 2, 16
 218 0138 13010101 		addi	sp,sp,16
 219              		.cfi_def_cfa_offset 0
 220 013c 67800000 		jr	ra
 221              		.cfi_endproc
 222              	.LFE25:
 224              		.align	2
 225              		.globl	_ZN3TCB10popSppSpieEv
 227              	_ZN3TCB10popSppSpieEv:
 228              	.LFB26:
  45:src/TCB.cpp   **** 
  46:src/TCB.cpp   **** void TCB::popSppSpie()
  47:src/TCB.cpp   **** {
 229              		.loc 1 47 1 is_stmt 1
 230              		.cfi_startproc
 231 0140 130101FF 		addi	sp,sp,-16
 232              		.cfi_def_cfa_offset 16
 233 0144 23348100 		sd	s0,8(sp)
 234              		.cfi_offset 8, -8
 235 0148 13040101 		addi	s0,sp,16
 236              		.cfi_def_cfa 8, 0
  48:src/TCB.cpp   ****   __asm__ volatile ("csrw sepc, ra");
 237              		.loc 1 48 3
 238              		.loc 1 48 37 is_stmt 0
 239              	#APP
 240              	# 48 "src/TCB.cpp" 1
  49              	  __asm__ volatile("sret");
 241              		csrw sepc, ra
 242              	# 0 "" 2
 243              		.loc 1 49 3 is_stmt 1
 244              		.loc 1 49 27 is_stmt 0
 245              	# 49 "src/TCB.cpp" 1
  50              	}...
 246              		sret
 247              	# 0 "" 2
 248              		.loc 1 50 1
 249              	#NO_APP
 250 0154 03348100 		ld	s0,8(sp)
 251              		.cfi_restore 8
 252              		.cfi_def_cfa 2, 16
GAS LISTING /tmp/cc73pAGw.s 			page 8


 253 0158 13010101 		addi	sp,sp,16
 254              		.cfi_def_cfa_offset 0
 255 015c 67800000 		jr	ra
 256              		.cfi_endproc
 257              	.LFE26:
 259              		.align	2
 260              		.globl	_ZN3TCB7wrapperEv
 262              	_ZN3TCB7wrapperEv:
 263              	.LFB23:
  17:src/TCB.cpp   **** {
 264              		.loc 1 17 1 is_stmt 1
 265              		.cfi_startproc
 266 0160 130101FE 		addi	sp,sp,-32
 267              		.cfi_def_cfa_offset 32
 268 0164 233C1100 		sd	ra,24(sp)
 269 0168 23388100 		sd	s0,16(sp)
 270 016c 23349100 		sd	s1,8(sp)
 271              		.cfi_offset 1, -8
 272              		.cfi_offset 8, -16
 273              		.cfi_offset 9, -24
 274 0170 13040102 		addi	s0,sp,32
 275              		.cfi_def_cfa 8, 0
  18:src/TCB.cpp   ****   popSppSpie();
 276              		.loc 1 18 3
  18:src/TCB.cpp   ****   popSppSpie();
 277              		.loc 1 18 13 is_stmt 0
 278 0174 97000000 		call	_ZN3TCB10popSppSpieEv
 278      E7800000 
 279              	.LVL20:
  19:src/TCB.cpp   ****   trenutnaNit->telo((void*) trenutnaNit->argumenti);
 280              		.loc 1 19 3 is_stmt 1
  19:src/TCB.cpp   ****   trenutnaNit->telo((void*) trenutnaNit->argumenti);
 281              		.loc 1 19 16 is_stmt 0
 282 017c 97040000 		lla	s1,.LANCHOR0
 282      93840400 
 283 0184 83B70400 		ld	a5,0(s1)
 284 0188 03B70700 		ld	a4,0(a5)
  19:src/TCB.cpp   ****   trenutnaNit->telo((void*) trenutnaNit->argumenti);
 285              		.loc 1 19 20
 286 018c 03B50702 		ld	a0,32(a5)
 287 0190 E7000700 		jalr	a4
 288              	.LVL21:
  20:src/TCB.cpp   ****   trenutnaNit->postaviStatus(true);
 289              		.loc 1 20 3 is_stmt 1
  20:src/TCB.cpp   ****   trenutnaNit->postaviStatus(true);
 290              		.loc 1 20 29 is_stmt 0
 291 0194 83B70400 		ld	a5,0(s1)
 292              	.LVL22:
 293              	.LBB18:
 294              	.LBB19:
  74:src/../h/TCB.hpp ****    }
 295              		.loc 2 74 6 is_stmt 1
  74:src/../h/TCB.hpp ****    }
 296              		.loc 2 74 21 is_stmt 0
 297 0198 13071000 		li	a4,1
 298 019c 2384E702 		sb	a4,40(a5)
 299              	.LVL23:
GAS LISTING /tmp/cc73pAGw.s 			page 9


 300              	.LBE19:
 301              	.LBE18:
  21:src/TCB.cpp   ****   thread_dispatch();
 302              		.loc 1 21 3 is_stmt 1
  21:src/TCB.cpp   ****   thread_dispatch();
 303              		.loc 1 21 18 is_stmt 0
 304 01a0 97000000 		call	_Z15thread_dispatchv@plt
 304      E7800000 
 305              	.LVL24:
  22:src/TCB.cpp   **** }
 306              		.loc 1 22 1
 307 01a8 83308101 		ld	ra,24(sp)
 308              		.cfi_restore 1
 309 01ac 03340101 		ld	s0,16(sp)
 310              		.cfi_restore 8
 311              		.cfi_def_cfa 2, 32
 312 01b0 83348100 		ld	s1,8(sp)
 313              		.cfi_restore 9
 314 01b4 13010102 		addi	sp,sp,32
 315              		.cfi_def_cfa_offset 0
 316 01b8 67800000 		jr	ra
 317              		.cfi_endproc
 318              	.LFE23:
 320              		.globl	_ZN3TCB11trenutnaNitE
 321              		.bss
 322              		.align	3
 323              		.set	.LANCHOR0,. + 0
 326              	_ZN3TCB11trenutnaNitE:
 327 0000 00000000 		.zero	8
 327      00000000 
 328              		.text
 329              	.Letext0:
 330              		.file 3 "src/../h/../lib/hw.h"
 331              		.file 4 "src/../h/Scheduler.hpp"
 332              		.file 5 "src/../h/syscall_c.h"
GAS LISTING /tmp/cc73pAGw.s 			page 10


DEFINED SYMBOLS
                            *ABS*:0000000000000000 TCB.cpp
     /tmp/cc73pAGw.s:9      .text:0000000000000000 _ZN3TCBC2EPFvPvES0_S0_
     /tmp/cc73pAGw.s:13     .text:0000000000000000 .L0 
     /tmp/cc73pAGw.s:15     .text:0000000000000000 .L0 
     /tmp/cc73pAGw.s:16     .text:0000000000000004 .L0 
     /tmp/cc73pAGw.s:22     .text:0000000000000018 .L0 
     /tmp/cc73pAGw.s:23     .text:0000000000000018 .L0 
     /tmp/cc73pAGw.s:24     .text:0000000000000018 .L0 
     /tmp/cc73pAGw.s:25     .text:0000000000000018 .L0 
     /tmp/cc73pAGw.s:26     .text:0000000000000018 .L0 
     /tmp/cc73pAGw.s:28     .text:000000000000001c .L0 
     /tmp/cc73pAGw.s:34     .text:0000000000000028 .L0 
     /tmp/cc73pAGw.s:36     .text:000000000000002c .L0 
     /tmp/cc73pAGw.s:38     .text:0000000000000030 .L0 
     /tmp/cc73pAGw.s:44     .text:000000000000003c .L0 
     /tmp/cc73pAGw.s:262    .text:0000000000000160 _ZN3TCB7wrapperEv
     /tmp/cc73pAGw.s:48     .text:000000000000004c .L0 
     /tmp/cc73pAGw.s:50     .text:0000000000000050 .L0 
     /tmp/cc73pAGw.s:54     .text:0000000000000058 .L0 
     /tmp/cc73pAGw.s:60     .text:0000000000000068 .L0 
     /tmp/cc73pAGw.s:61     .text:000000000000006c .L0 
     /tmp/cc73pAGw.s:62     .text:000000000000006c .L0 
     /tmp/cc73pAGw.s:64     .text:0000000000000070 .L0 
     /tmp/cc73pAGw.s:65     .text:0000000000000070 .L0 
     /tmp/cc73pAGw.s:67     .text:0000000000000074 .L0 
     /tmp/cc73pAGw.s:70     .text:0000000000000078 .L0 
     /tmp/cc73pAGw.s:73     .text:000000000000007c .L0 
     /tmp/cc73pAGw.s:76     .text:0000000000000080 .L0 
     /tmp/cc73pAGw.s:80     .text:0000000000000084 .L0 
     /tmp/cc73pAGw.s:83     .text:0000000000000084 .L0 
     /tmp/cc73pAGw.s:88     .text:000000000000008c .L0 
     /tmp/cc73pAGw.s:91     .text:0000000000000094 .L0 
     /tmp/cc73pAGw.s:9      .text:0000000000000000 _ZN3TCBC1EPFvPvES0_S0_
     /tmp/cc73pAGw.s:99     .text:0000000000000094 _ZN3TCB8dispatchEv
     /tmp/cc73pAGw.s:102    .text:0000000000000094 .L0 
     /tmp/cc73pAGw.s:103    .text:0000000000000094 .L0 
     /tmp/cc73pAGw.s:104    .text:0000000000000098 .L0 
     /tmp/cc73pAGw.s:108    .text:00000000000000a4 .L0 
     /tmp/cc73pAGw.s:109    .text:00000000000000a4 .L0 
     /tmp/cc73pAGw.s:110    .text:00000000000000a4 .L0 
     /tmp/cc73pAGw.s:112    .text:00000000000000a8 .L0 
     /tmp/cc73pAGw.s:114    .text:00000000000000a8 .L0 
     /tmp/cc73pAGw.s:115    .text:00000000000000a8 .L0 
     /tmp/cc73pAGw.s:121    .text:00000000000000b0 .L0 
     /tmp/cc73pAGw.s:122    .text:00000000000000b0 .L0 
     /tmp/cc73pAGw.s:123    .text:00000000000000b0 .L0 
     /tmp/cc73pAGw.s:128    .text:00000000000000b4 .L0 
     /tmp/cc73pAGw.s:133    .text:00000000000000b8 .L0 
     /tmp/cc73pAGw.s:134    .text:00000000000000b8 .L0 
     /tmp/cc73pAGw.s:139    .text:00000000000000bc .L0 
     /tmp/cc73pAGw.s:142    .text:00000000000000c0 .L0 
     /tmp/cc73pAGw.s:143    .text:00000000000000c0 .L0 
     /tmp/cc73pAGw.s:146    .text:00000000000000c8 .L0 
     /tmp/cc73pAGw.s:148    .text:00000000000000d0 .L0 
     /tmp/cc73pAGw.s:150    .text:00000000000000d4 .L0 
     /tmp/cc73pAGw.s:151    .text:00000000000000d4 .L0 
GAS LISTING /tmp/cc73pAGw.s 			page 11


     /tmp/cc73pAGw.s:157    .text:00000000000000e4 .L0 
     /tmp/cc73pAGw.s:158    .text:00000000000000e8 .L0 
     /tmp/cc73pAGw.s:159    .text:00000000000000e8 .L0 
     /tmp/cc73pAGw.s:161    .text:00000000000000ec .L0 
     /tmp/cc73pAGw.s:162    .text:00000000000000ec .L0 
     /tmp/cc73pAGw.s:164    .text:00000000000000f0 .L0 
     /tmp/cc73pAGw.s:167    .text:00000000000000f4 .L0 
     /tmp/cc73pAGw.s:171    .text:00000000000000f8 .L0 
     /tmp/cc73pAGw.s:173    .text:00000000000000f8 .L0 
     /tmp/cc73pAGw.s:174    .text:00000000000000f8 .L0 
     /tmp/cc73pAGw.s:178    .text:0000000000000108 .L0 
     /tmp/cc73pAGw.s:184    .text:0000000000000108 _ZN3TCB4exitEv
     /tmp/cc73pAGw.s:187    .text:0000000000000108 .L0 
     /tmp/cc73pAGw.s:188    .text:0000000000000108 .L0 
     /tmp/cc73pAGw.s:189    .text:000000000000010c .L0 
     /tmp/cc73pAGw.s:192    .text:0000000000000114 .L0 
     /tmp/cc73pAGw.s:193    .text:0000000000000114 .L0 
     /tmp/cc73pAGw.s:195    .text:0000000000000118 .L0 
     /tmp/cc73pAGw.s:200    .text:0000000000000118 .L0 
     /tmp/cc73pAGw.s:201    .text:0000000000000118 .L0 
     /tmp/cc73pAGw.s:202    .text:0000000000000118 .L0 
     /tmp/cc73pAGw.s:209    .text:0000000000000128 .L0 
     /tmp/cc73pAGw.s:210    .text:0000000000000128 .L0 
     /tmp/cc73pAGw.s:213    .text:0000000000000130 .L0 
     /tmp/cc73pAGw.s:214    .text:0000000000000134 .L0 
     /tmp/cc73pAGw.s:216    .text:0000000000000138 .L0 
     /tmp/cc73pAGw.s:217    .text:0000000000000138 .L0 
     /tmp/cc73pAGw.s:219    .text:000000000000013c .L0 
     /tmp/cc73pAGw.s:221    .text:0000000000000140 .L0 
     /tmp/cc73pAGw.s:227    .text:0000000000000140 _ZN3TCB10popSppSpieEv
     /tmp/cc73pAGw.s:230    .text:0000000000000140 .L0 
     /tmp/cc73pAGw.s:231    .text:0000000000000140 .L0 
     /tmp/cc73pAGw.s:232    .text:0000000000000144 .L0 
     /tmp/cc73pAGw.s:234    .text:0000000000000148 .L0 
     /tmp/cc73pAGw.s:236    .text:000000000000014c .L0 
     /tmp/cc73pAGw.s:238    .text:000000000000014c .L0 
         src/TCB.cpp:48     .text:000000000000014c .L0 
     /tmp/cc73pAGw.s:244    .text:0000000000000150 .L0 
         src/TCB.cpp:49     .text:0000000000000150 .L0 
     /tmp/cc73pAGw.s:250    .text:0000000000000154 .L0 
     /tmp/cc73pAGw.s:251    .text:0000000000000158 .L0 
     /tmp/cc73pAGw.s:252    .text:0000000000000158 .L0 
     /tmp/cc73pAGw.s:254    .text:000000000000015c .L0 
     /tmp/cc73pAGw.s:256    .text:0000000000000160 .L0 
     /tmp/cc73pAGw.s:265    .text:0000000000000160 .L0 
     /tmp/cc73pAGw.s:266    .text:0000000000000160 .L0 
     /tmp/cc73pAGw.s:267    .text:0000000000000164 .L0 
     /tmp/cc73pAGw.s:271    .text:0000000000000170 .L0 
     /tmp/cc73pAGw.s:272    .text:0000000000000170 .L0 
     /tmp/cc73pAGw.s:273    .text:0000000000000170 .L0 
     /tmp/cc73pAGw.s:275    .text:0000000000000174 .L0 
     /tmp/cc73pAGw.s:277    .text:0000000000000174 .L0 
     /tmp/cc73pAGw.s:278    .text:0000000000000174 .L0 
     /tmp/cc73pAGw.s:281    .text:000000000000017c .L0 
     /tmp/cc73pAGw.s:282    .text:000000000000017c .L0 
     /tmp/cc73pAGw.s:286    .text:000000000000018c .L0 
     /tmp/cc73pAGw.s:290    .text:0000000000000194 .L0 
GAS LISTING /tmp/cc73pAGw.s 			page 12


     /tmp/cc73pAGw.s:291    .text:0000000000000194 .L0 
     /tmp/cc73pAGw.s:296    .text:0000000000000198 .L0 
     /tmp/cc73pAGw.s:297    .text:0000000000000198 .L0 
     /tmp/cc73pAGw.s:303    .text:00000000000001a0 .L0 
     /tmp/cc73pAGw.s:304    .text:00000000000001a0 .L0 
     /tmp/cc73pAGw.s:307    .text:00000000000001a8 .L0 
     /tmp/cc73pAGw.s:308    .text:00000000000001ac .L0 
     /tmp/cc73pAGw.s:310    .text:00000000000001b0 .L0 
     /tmp/cc73pAGw.s:311    .text:00000000000001b0 .L0 
     /tmp/cc73pAGw.s:313    .text:00000000000001b4 .L0 
     /tmp/cc73pAGw.s:315    .text:00000000000001b8 .L0 
     /tmp/cc73pAGw.s:317    .text:00000000000001bc .L0 
     /tmp/cc73pAGw.s:326    .bss:0000000000000000 _ZN3TCB11trenutnaNitE
     /tmp/cc73pAGw.s:323    .bss:0000000000000000 .LANCHOR0
     /tmp/cc73pAGw.s:333    .text:00000000000001bc .L0 
     /tmp/cc73pAGw.s:45     .text:0000000000000040 .L0 
     /tmp/cc73pAGw.s:115    .text:00000000000000a8 .L0 
     /tmp/cc73pAGw.s:146    .text:00000000000000c8 .L0 
     /tmp/cc73pAGw.s:202    .text:0000000000000118 .L0 
     /tmp/cc73pAGw.s:282    .text:000000000000017c .L0 
     /tmp/cc73pAGw.s:79     .text:0000000000000084 .L4
     /tmp/cc73pAGw.s:86     .text:000000000000008c .L5
     /tmp/cc73pAGw.s:42     .text:000000000000003c .L2
     /tmp/cc73pAGw.s:52     .text:0000000000000058 .L3
     /tmp/cc73pAGw.s:140    .text:00000000000000c0 .L8
     /tmp/cc73pAGw.s:170    .text:00000000000000f8 .L11
     /tmp/cc73pAGw.s:155    .text:00000000000000e4 .L7
     /tmp/cc73pAGw.s:1052   .debug_abbrev:0000000000000000 .Ldebug_abbrev0
     /tmp/cc73pAGw.s:2178   .debug_str:00000000000003d8 .LASF55
     /tmp/cc73pAGw.s:2068   .debug_str:00000000000000ad .LASF56
     /tmp/cc73pAGw.s:2160   .debug_str:0000000000000355 .LASF57
     /tmp/cc73pAGw.s:5      .text:0000000000000000 .Ltext0
     /tmp/cc73pAGw.s:329    .text:00000000000001bc .Letext0
     /tmp/cc73pAGw.s:2044   .debug_line:0000000000000000 .Ldebug_line0
     /tmp/cc73pAGw.s:2116   .debug_str:000000000000021b .LASF0
     /tmp/cc73pAGw.s:2126   .debug_str:0000000000000263 .LASF1
     /tmp/cc73pAGw.s:2108   .debug_str:00000000000001e8 .LASF2
     /tmp/cc73pAGw.s:2100   .debug_str:00000000000001c4 .LASF4
     /tmp/cc73pAGw.s:2164   .debug_str:000000000000037e .LASF3
     /tmp/cc73pAGw.s:2066   .debug_str:00000000000000a6 .LASF5
     /tmp/cc73pAGw.s:2130   .debug_str:000000000000027d .LASF6
     /tmp/cc73pAGw.s:2114   .debug_str:0000000000000208 .LASF7
     /tmp/cc73pAGw.s:2184   .debug_str:00000000000004ba .LASF8
     /tmp/cc73pAGw.s:2098   .debug_str:00000000000001b6 .LASF9
     /tmp/cc73pAGw.s:2140   .debug_str:00000000000002b4 .LASF10
     /tmp/cc73pAGw.s:2182   .debug_str:00000000000004ab .LASF11
     /tmp/cc73pAGw.s:2104   .debug_str:00000000000001d3 .LASF12
     /tmp/cc73pAGw.s:2050   .debug_str:000000000000000e .LASF13
     /tmp/cc73pAGw.s:2076   .debug_str:00000000000000ed .LASF14
     /tmp/cc73pAGw.s:2158   .debug_str:000000000000033f .LASF15
     /tmp/cc73pAGw.s:2080   .debug_str:0000000000000109 .LASF16
     /tmp/cc73pAGw.s:2138   .debug_str:00000000000002aa .LASF17
     /tmp/cc73pAGw.s:2136   .debug_str:00000000000002a0 .LASF58
     /tmp/cc73pAGw.s:2132   .debug_str:0000000000000290 .LASF24
     /tmp/cc73pAGw.s:2156   .debug_str:0000000000000325 .LASF30
     /tmp/cc73pAGw.s:2188   .debug_str:00000000000004e0 .LASF59
     /tmp/cc73pAGw.s:2084   .debug_str:0000000000000131 .LASF60
GAS LISTING /tmp/cc73pAGw.s 			page 13


     /tmp/cc73pAGw.s:2162   .debug_str:0000000000000373 .LASF61
     /tmp/cc73pAGw.s:2056   .debug_str:0000000000000038 .LASF62
     /tmp/cc73pAGw.s:2048   .debug_str:0000000000000009 .LASF63
     /tmp/cc73pAGw.s:2170   .debug_str:00000000000003b0 .LASF18
     /tmp/cc73pAGw.s:2192   .debug_str:00000000000004ef .LASF19
     /tmp/cc73pAGw.s:2102   .debug_str:00000000000001cb .LASF20
     /tmp/cc73pAGw.s:2190   .debug_str:00000000000004e5 .LASF21
     /tmp/cc73pAGw.s:2168   .debug_str:00000000000003a7 .LASF22
     /tmp/cc73pAGw.s:2134   .debug_str:0000000000000296 .LASF23
     /tmp/cc73pAGw.s:2194   .debug_str:00000000000004f4 .LASF64
     /tmp/cc73pAGw.s:2154   .debug_str:000000000000031a .LASF65
     /tmp/cc73pAGw.s:2120   .debug_str:0000000000000231 .LASF66
     /tmp/cc73pAGw.s:2110   .debug_str:00000000000001f6 .LASF67
     /tmp/cc73pAGw.s:2064   .debug_str:0000000000000087 .LASF68
     /tmp/cc73pAGw.s:2174   .debug_str:00000000000003c0 .LASF32
     /tmp/cc73pAGw.s:2082   .debug_str:000000000000011f .LASF34
     /tmp/cc73pAGw.s:2150   .debug_str:00000000000002f4 .LASF25
     /tmp/cc73pAGw.s:2062   .debug_str:0000000000000062 .LASF27
     /tmp/cc73pAGw.s:2054   .debug_str:0000000000000024 .LASF26
     /tmp/cc73pAGw.s:2094   .debug_str:0000000000000178 .LASF28
     /tmp/cc73pAGw.s:2124   .debug_str:000000000000025d .LASF29
     /tmp/cc73pAGw.s:2142   .debug_str:00000000000002c3 .LASF31
     /tmp/cc73pAGw.s:2118   .debug_str:0000000000000228 .LASF33
     /tmp/cc73pAGw.s:2088   .debug_str:000000000000014b .LASF35
     /tmp/cc73pAGw.s:2106   .debug_str:00000000000001e3 .LASF36
     /tmp/cc73pAGw.s:2072   .debug_str:00000000000000d5 .LASF37
     /tmp/cc73pAGw.s:2112   .debug_str:00000000000001fc .LASF69
     /tmp/cc73pAGw.s:2180   .debug_str:000000000000049c .LASF44
     /tmp/cc73pAGw.s:2152   .debug_str:00000000000002ff .LASF46
     /tmp/cc73pAGw.s:2144   .debug_str:00000000000002d5 .LASF38
     /tmp/cc73pAGw.s:2060   .debug_str:0000000000000049 .LASF39
     /tmp/cc73pAGw.s:2058   .debug_str:0000000000000040 .LASF40
     /tmp/cc73pAGw.s:2196   .debug_str:000000000000050b .LASF41
     /tmp/cc73pAGw.s:2172   .debug_str:00000000000003b5 .LASF42
     /tmp/cc73pAGw.s:2186   .debug_str:00000000000004ca .LASF43
     /tmp/cc73pAGw.s:2176   .debug_str:00000000000003c8 .LASF45
     /tmp/cc73pAGw.s:2070   .debug_str:00000000000000b9 .LASF47
     /tmp/cc73pAGw.s:2086   .debug_str:0000000000000146 .LASF48
     /tmp/cc73pAGw.s:2148   .debug_str:00000000000002e8 .LASF49
     /tmp/cc73pAGw.s:2046   .debug_str:0000000000000000 .LASF50
     /tmp/cc73pAGw.s:2090   .debug_str:000000000000015e .LASF51
     /tmp/cc73pAGw.s:2122   .debug_str:0000000000000247 .LASF70
     /tmp/cc73pAGw.s:228    .text:0000000000000140 .LFB26
     /tmp/cc73pAGw.s:257    .text:0000000000000160 .LFE26
     /tmp/cc73pAGw.s:185    .text:0000000000000108 .LFB25
     /tmp/cc73pAGw.s:222    .text:0000000000000140 .LFE25
     /tmp/cc73pAGw.s:198    .text:0000000000000118 .LBB16
     /tmp/cc73pAGw.s:207    .text:0000000000000128 .LBE16
     /tmp/cc73pAGw.s:1875   .debug_loc:0000000000000000 .LLST7
     /tmp/cc73pAGw.s:1883   .debug_loc:0000000000000024 .LLST8
     /tmp/cc73pAGw.s:211    .text:0000000000000130 .LVL19
     /tmp/cc73pAGw.s:100    .text:0000000000000094 .LFB24
     /tmp/cc73pAGw.s:179    .text:0000000000000108 .LFE24
     /tmp/cc73pAGw.s:2074   .debug_str:00000000000000e4 .LASF52
     /tmp/cc73pAGw.s:1891   .debug_loc:000000000000004f .LLST4
     /tmp/cc73pAGw.s:118    .text:00000000000000b0 .LBB12
     /tmp/cc73pAGw.s:126    .text:00000000000000b4 .LBE12
GAS LISTING /tmp/cc73pAGw.s 			page 14


     /tmp/cc73pAGw.s:1902   .debug_loc:0000000000000085 .LLST5
     /tmp/cc73pAGw.s:130    .text:00000000000000b8 .LBB14
     /tmp/cc73pAGw.s:137    .text:00000000000000bc .LBE14
     /tmp/cc73pAGw.s:1909   .debug_loc:00000000000000a8 .LLST6
     /tmp/cc73pAGw.s:144    .text:00000000000000c8 .LVL12
     /tmp/cc73pAGw.s:154    .text:00000000000000e4 .LVL13
     /tmp/cc73pAGw.s:176    .text:0000000000000104 .LVL16
     /tmp/cc73pAGw.s:263    .text:0000000000000160 .LFB23
     /tmp/cc73pAGw.s:318    .text:00000000000001bc .LFE23
     /tmp/cc73pAGw.s:293    .text:0000000000000198 .LBB18
     /tmp/cc73pAGw.s:301    .text:00000000000001a0 .LBE18
     /tmp/cc73pAGw.s:1916   .debug_loc:00000000000000cb .LLST9
     /tmp/cc73pAGw.s:1924   .debug_loc:00000000000000ef .LLST10
     /tmp/cc73pAGw.s:279    .text:000000000000017c .LVL20
     /tmp/cc73pAGw.s:305    .text:00000000000001a8 .LVL24
     /tmp/cc73pAGw.s:2146   .debug_str:00000000000002e3 .LASF53
     /tmp/cc73pAGw.s:2166   .debug_str:0000000000000390 .LASF71
     /tmp/cc73pAGw.s:10     .text:0000000000000000 .LFB21
     /tmp/cc73pAGw.s:92     .text:0000000000000094 .LFE21
     /tmp/cc73pAGw.s:1931   .debug_loc:0000000000000112 .LLST0
     /tmp/cc73pAGw.s:1953   .debug_loc:0000000000000171 .LLST1
     /tmp/cc73pAGw.s:1979   .debug_loc:00000000000001e3 .LLST2
     /tmp/cc73pAGw.s:2006   .debug_loc:0000000000000256 .LLST3
     /tmp/cc73pAGw.s:41     .text:000000000000003c .LVL2
     /tmp/cc73pAGw.s:2128   .debug_str:0000000000000276 .LASF54
     /tmp/cc73pAGw.s:2092   .debug_str:0000000000000163 .LASF72
     /tmp/cc73pAGw.s:2078   .debug_str:00000000000000f9 .LASF73
     /tmp/cc73pAGw.s:2052   .debug_str:000000000000001e .LASF74
     /tmp/cc73pAGw.s:2096   .debug_str:00000000000001a6 .LASF75
     /tmp/cc73pAGw.s:197    .text:0000000000000118 .LVL17
     /tmp/cc73pAGw.s:205    .text:0000000000000128 .LVL18
     /tmp/cc73pAGw.s:116    .text:00000000000000b0 .LVL8
     /tmp/cc73pAGw.s:165    .text:00000000000000f0 .LVL14
     /tmp/cc73pAGw.s:169    .text:00000000000000f8 .LVL15
     /tmp/cc73pAGw.s:124    .text:00000000000000b4 .LVL9
     /tmp/cc73pAGw.s:129    .text:00000000000000b8 .LVL10
     /tmp/cc73pAGw.s:135    .text:00000000000000bc .LVL11
     /tmp/cc73pAGw.s:292    .text:0000000000000198 .LVL22
     /tmp/cc73pAGw.s:299    .text:00000000000001a0 .LVL23
     /tmp/cc73pAGw.s:14     .text:0000000000000000 .LVL0
     /tmp/cc73pAGw.s:39     .text:0000000000000034 .LVL1
     /tmp/cc73pAGw.s:68     .text:0000000000000074 .LVL3
     /tmp/cc73pAGw.s:78     .text:0000000000000084 .LVL6
     /tmp/cc73pAGw.s:71     .text:0000000000000078 .LVL4
     /tmp/cc73pAGw.s:85     .text:000000000000008c .LVL7
     /tmp/cc73pAGw.s:74     .text:000000000000007c .LVL5
     /tmp/cc73pAGw.s:334    .debug_info:0000000000000000 .Ldebug_info0

UNDEFINED SYMBOLS
_Znam
_ZN9Scheduler4uzmiEv
_ZN3TCB5yieldEPNS_7ContextES1_
_ZN9Scheduler5staviEP3TCB
_Z15thread_dispatchv
